target datalayout = "e-m:e-p270:32:32-p271:32:32-p272:64:64-i64:64-i128:128-f80:128-n8:16:32:64-S128"
target triple = "x86_64-pc-linux-gnu"

%"class.nori::Mesh" = type { %"class.nori::NoriObject", %"class.std::__cxx11::basic_string", %"class.Eigen::Matrix", %"class.Eigen::Matrix", %"class.Eigen::Matrix", %"class.Eigen::Matrix.2", ptr, ptr, %"struct.nori::TBoundingBox" }
%"class.nori::NoriObject" = type { ptr }
%"class.std::__cxx11::basic_string" = type { %"struct.std::__cxx11::basic_string<char>::_Alloc_hider", i64, %union.anon }
%"struct.std::__cxx11::basic_string<char>::_Alloc_hider" = type { ptr }
%union.anon = type { i64, [8 x i8] }
%"class.Eigen::Matrix" = type { %"class.Eigen::PlainObjectBase" }
%"class.Eigen::PlainObjectBase" = type { %"class.Eigen::DenseStorage" }
%"class.Eigen::DenseStorage" = type { ptr, i64, i64 }
%"class.Eigen::Matrix.2" = type { %"class.Eigen::PlainObjectBase.3" }
%"class.Eigen::PlainObjectBase.3" = type { %"class.Eigen::DenseStorage.10" }
%"class.Eigen::DenseStorage.10" = type { ptr, i64, i64 }
%"struct.nori::TBoundingBox" = type { %"struct.nori::TPoint", %"struct.nori::TPoint" }
%"struct.nori::TPoint" = type { %"class.Eigen::Matrix.11" }
%"class.Eigen::Matrix.11" = type { %"class.Eigen::PlainObjectBase.12" }
%"class.Eigen::PlainObjectBase.12" = type { %"class.Eigen::DenseStorage.19" }
%"class.Eigen::DenseStorage.19" = type { %"struct.Eigen::internal::plain_array" }
%"struct.Eigen::internal::plain_array" = type { [3 x float] }

; Function Attrs: mustprogress nounwind uwtable
define linkonce_odr hidden void @_ZN5Eigen8internal12aligned_freeEPv(ptr noundef %0) #5 comdat {
  %2 = alloca ptr, align 8
  store ptr %0, ptr %2, align 8
  %3 = load ptr, ptr %2, align 8
  call void @free(ptr noundef %3) #3
  ret void
}

; Function Attrs: mustprogress uwtable
define linkonce_odr hidden void @_ZN5Eigen8internal24conditional_aligned_freeILb1EEEvPv(ptr noundef %0) #4 comdat {
  %2 = alloca ptr, align 8
  store ptr %0, ptr %2, align 8
  %3 = load ptr, ptr %2, align 8
  call void @_ZN5Eigen8internal12aligned_freeEPv(ptr noundef %3)
  ret void
}

; Function Attrs: mustprogress uwtable
define linkonce_odr hidden void @_ZN5Eigen8internal31conditional_aligned_delete_autoIfLb1EEEvPT_m(ptr noundef %0, i64 noundef %1) #4 comdat {
  %3 = alloca ptr, align 8
  %4 = alloca i64, align 8
  store ptr %0, ptr %3, align 8
  store i64 %1, ptr %4, align 8
  %5 = load ptr, ptr %3, align 8
  call void @_ZN5Eigen8internal24conditional_aligned_freeILb1EEEvPv(ptr noundef %5)
  ret void
}

; Function Attrs: noreturn nounwind uwtable
define linkonce_odr hidden void @__clang_call_terminate(ptr noundef %0) #8 comdat {
  %2 = call ptr @__cxa_begin_catch(ptr %0) #3
  call void @_ZSt9terminatev() #18
  unreachable
}

; Function Attrs: mustprogress uwtable
define linkonce_odr hidden void @_ZN5Eigen8internal31conditional_aligned_delete_autoIjLb1EEEvPT_m(ptr noundef %0, i64 noundef %1) #4 comdat {
  %3 = alloca ptr, align 8
  %4 = alloca i64, align 8
  store ptr %0, ptr %3, align 8
  store i64 %1, ptr %4, align 8
  %5 = load ptr, ptr %3, align 8
  call void @_ZN5Eigen8internal24conditional_aligned_freeILb1EEEvPv(ptr noundef %5)
  ret void
}

; Function Attrs: mustprogress nounwind uwtable
define linkonce_odr hidden void @_ZN5Eigen12DenseStorageIfLin1ELin1ELin1ELi0EED2Ev(ptr noundef nonnull align 8 dereferenceable(24) %0) unnamed_addr #5 comdat align 2 personality ptr @__gxx_personality_v0 {
  %2 = alloca ptr, align 8
  store ptr %0, ptr %2, align 8
  %3 = load ptr, ptr %2, align 8
  %4 = getelementptr inbounds %"class.Eigen::DenseStorage", ptr %3, i32 0, i32 0
  %5 = load ptr, ptr %4, align 8
  %6 = getelementptr inbounds %"class.Eigen::DenseStorage", ptr %3, i32 0, i32 1
  %7 = load i64, ptr %6, align 8
  %8 = getelementptr inbounds %"class.Eigen::DenseStorage", ptr %3, i32 0, i32 2
  %9 = load i64, ptr %8, align 8
  %10 = mul nsw i64 %7, %9
  invoke void @_ZN5Eigen8internal31conditional_aligned_delete_autoIfLb1EEEvPT_m(ptr noundef %5, i64 noundef %10)
          to label %11 unwind label %12

11:                                               ; preds = %1
  ret void

12:                                               ; preds = %1
  %13 = landingpad { ptr, i32 }
          catch ptr null
  %14 = extractvalue { ptr, i32 } %13, 0
  call void @__clang_call_terminate(ptr %14) #18
  unreachable
}

; Function Attrs: mustprogress nounwind uwtable
define linkonce_odr hidden void @_ZN5Eigen12DenseStorageIjLin1ELin1ELin1ELi0EED2Ev(ptr noundef nonnull align 8 dereferenceable(24) %0) unnamed_addr #5 comdat align 2 personality ptr @__gxx_personality_v0 {
  %2 = alloca ptr, align 8
  store ptr %0, ptr %2, align 8
  %3 = load ptr, ptr %2, align 8
  %4 = getelementptr inbounds %"class.Eigen::DenseStorage.10", ptr %3, i32 0, i32 0
  %5 = load ptr, ptr %4, align 8
  %6 = getelementptr inbounds %"class.Eigen::DenseStorage.10", ptr %3, i32 0, i32 1
  %7 = load i64, ptr %6, align 8
  %8 = getelementptr inbounds %"class.Eigen::DenseStorage.10", ptr %3, i32 0, i32 2
  %9 = load i64, ptr %8, align 8
  %10 = mul nsw i64 %7, %9
  invoke void @_ZN5Eigen8internal31conditional_aligned_delete_autoIjLb1EEEvPT_m(ptr noundef %5, i64 noundef %10)
          to label %11 unwind label %12

11:                                               ; preds = %1
  ret void

12:                                               ; preds = %1
  %13 = landingpad { ptr, i32 }
          catch ptr null
  %14 = extractvalue { ptr, i32 } %13, 0
  call void @__clang_call_terminate(ptr %14) #18
  unreachable
}

; Function Attrs: mustprogress nounwind uwtable
define linkonce_odr hidden void @_ZN5Eigen15PlainObjectBaseINS_6MatrixIfLin1ELin1ELi0ELin1ELin1EEEED2Ev(ptr noundef nonnull align 8 dereferenceable(24) %0) unnamed_addr #5 comdat align 2 {
  %2 = alloca ptr, align 8
  store ptr %0, ptr %2, align 8
  %3 = load ptr, ptr %2, align 8
  %4 = getelementptr inbounds %"class.Eigen::PlainObjectBase", ptr %3, i32 0, i32 0
  call void @_ZN5Eigen12DenseStorageIfLin1ELin1ELin1ELi0EED2Ev(ptr noundef nonnull align 8 dereferenceable(24) %4) #3
  ret void
}

; Function Attrs: mustprogress nounwind uwtable
define linkonce_odr hidden void @_ZN5Eigen15PlainObjectBaseINS_6MatrixIjLin1ELin1ELi0ELin1ELin1EEEED2Ev(ptr noundef nonnull align 8 dereferenceable(24) %0) unnamed_addr #5 comdat align 2 {
  %2 = alloca ptr, align 8
  store ptr %0, ptr %2, align 8
  %3 = load ptr, ptr %2, align 8
  %4 = getelementptr inbounds %"class.Eigen::PlainObjectBase.3", ptr %3, i32 0, i32 0
  call void @_ZN5Eigen12DenseStorageIjLin1ELin1ELin1ELi0EED2Ev(ptr noundef nonnull align 8 dereferenceable(24) %4) #3
  ret void
}

; Function Attrs: mustprogress nounwind uwtable
define linkonce_odr hidden void @_ZN4nori10NoriObjectD2Ev(ptr noundef nonnull align 8 dereferenceable(8) %0) unnamed_addr #5 comdat align 2 {
  %2 = alloca ptr, align 8
  store ptr %0, ptr %2, align 8
  ret void
}

; Function Attrs: mustprogress nounwind uwtable
define linkonce_odr hidden void @_ZN5Eigen6MatrixIfLin1ELin1ELi0ELin1ELin1EED2Ev(ptr noundef nonnull align 8 dereferenceable(24) %0) unnamed_addr #5 comdat align 2 {
  %2 = alloca ptr, align 8
  store ptr %0, ptr %2, align 8
  %3 = load ptr, ptr %2, align 8
  call void @_ZN5Eigen15PlainObjectBaseINS_6MatrixIfLin1ELin1ELi0ELin1ELin1EEEED2Ev(ptr noundef nonnull align 8 dereferenceable(24) %3) #3
  ret void
}

; Function Attrs: mustprogress nounwind uwtable
define linkonce_odr hidden void @_ZN5Eigen6MatrixIjLin1ELin1ELi0ELin1ELin1EED2Ev(ptr noundef nonnull align 8 dereferenceable(24) %0) unnamed_addr #5 comdat align 2 {
  %2 = alloca ptr, align 8
  store ptr %0, ptr %2, align 8
  %3 = load ptr, ptr %2, align 8
  call void @_ZN5Eigen15PlainObjectBaseINS_6MatrixIjLin1ELin1ELi0ELin1ELin1EEEED2Ev(ptr noundef nonnull align 8 dereferenceable(24) %3) #3
  ret void
}

; Function Attrs: mustprogress nounwind uwtable
define hidden void @_ZN4nori4MeshD2Ev(ptr noundef nonnull align 8 dereferenceable(176) %0) unnamed_addr #5 align 2 {
  %2 = alloca ptr, align 8
  store ptr %0, ptr %2, align 8
  %3 = load ptr, ptr %2, align 8
  store ptr getelementptr inbounds ({ [9 x ptr] }, ptr @_ZTVN4nori4MeshE, i32 0, i32 0, i32 2), ptr %3, align 8
  %4 = getelementptr inbounds %"class.nori::Mesh", ptr %3, i32 0, i32 6
  %5 = load ptr, ptr %4, align 8
  %6 = icmp eq ptr %5, null
  br i1 %6, label %11, label %7

7:                                                ; preds = %1
  %8 = load ptr, ptr %5, align 8
  %9 = getelementptr inbounds ptr, ptr %8, i64 1
  %10 = load ptr, ptr %9, align 8
  call void %10(ptr noundef nonnull align 8 dereferenceable(8) %5) #3
  br label %11

11:                                               ; preds = %7, %1
  %12 = getelementptr inbounds %"class.nori::Mesh", ptr %3, i32 0, i32 7
  %13 = load ptr, ptr %12, align 8
  %14 = icmp eq ptr %13, null
  br i1 %14, label %19, label %15

15:                                               ; preds = %11
  %16 = load ptr, ptr %13, align 8
  %17 = getelementptr inbounds ptr, ptr %16, i64 1
  %18 = load ptr, ptr %17, align 8
  call void %18(ptr noundef nonnull align 8 dereferenceable(8) %13) #3
  br label %19

19:                                               ; preds = %15, %11
  %20 = getelementptr inbounds %"class.nori::Mesh", ptr %3, i32 0, i32 5
  call void @_ZN5Eigen6MatrixIjLin1ELin1ELi0ELin1ELin1EED2Ev(ptr noundef nonnull align 8 dereferenceable(24) %20) #3
  %21 = getelementptr inbounds %"class.nori::Mesh", ptr %3, i32 0, i32 4
  call void @_ZN5Eigen6MatrixIfLin1ELin1ELi0ELin1ELin1EED2Ev(ptr noundef nonnull align 8 dereferenceable(24) %21) #3
  %22 = getelementptr inbounds %"class.nori::Mesh", ptr %3, i32 0, i32 3
  call void @_ZN5Eigen6MatrixIfLin1ELin1ELi0ELin1ELin1EED2Ev(ptr noundef nonnull align 8 dereferenceable(24) %22) #3
  %23 = getelementptr inbounds %"class.nori::Mesh", ptr %3, i32 0, i32 2
  call void @_ZN5Eigen6MatrixIfLin1ELin1ELi0ELin1ELin1EED2Ev(ptr noundef nonnull align 8 dereferenceable(24) %23) #3
  %24 = getelementptr inbounds %"class.nori::Mesh", ptr %3, i32 0, i32 1
  call void @_ZNSt7__cxx1112basic_stringIcSt11char_traitsIcESaIcEED1Ev(ptr noundef nonnull align 8 dereferenceable(32) %24) #3
  call void @_ZN4nori10NoriObjectD2Ev(ptr noundef nonnull align 8 dereferenceable(8) %3) #3
  ret void
}